; ModuleID = '28/288.c'
source_filename = "28/288.c"
target datalayout = "e-m:e-p270:32:32-p271:32:32-p272:64:64-i64:64-f80:128-n8:16:32:64-S128"
target triple = "x86_64-pc-linux-gnu"

@.str = private unnamed_addr constant [3 x i8] c"%d\00", align 1
@.str.1 = private unnamed_addr constant [4 x i8] c",%d\00", align 1

; Function Attrs: noinline nounwind uwtable
define dso_local void @main() #0 {
  %1 = alloca [10000 x i8], align 16
  %2 = alloca i32, align 4
  %3 = alloca i32, align 4
  %4 = alloca i32, align 4
  store i32 0, i32* %3, align 4
  %5 = getelementptr inbounds [10000 x i8], [10000 x i8]* %1, i64 0, i64 0
  %6 = call i32 (i8*, ...) bitcast (i32 (...)* @gets to i32 (i8*, ...)*)(i8* %5)
  store i32 0, i32* %2, align 4
  br label %7

7:                                                ; preds = %26, %0
  %8 = load i32, i32* %2, align 4
  %9 = sext i32 %8 to i64
  %10 = getelementptr inbounds [10000 x i8], [10000 x i8]* %1, i64 0, i64 %9
  %11 = load i8, i8* %10, align 1
  %12 = sext i8 %11 to i32
  %13 = icmp ne i32 %12, 32
  br i1 %13, label %14, label %21

14:                                               ; preds = %7
  %15 = load i32, i32* %2, align 4
  %16 = sext i32 %15 to i64
  %17 = getelementptr inbounds [10000 x i8], [10000 x i8]* %1, i64 0, i64 %16
  %18 = load i8, i8* %17, align 1
  %19 = sext i8 %18 to i32
  %20 = icmp ne i32 %19, 0
  br label %21

21:                                               ; preds = %14, %7
  %22 = phi i1 [ false, %7 ], [ %20, %14 ]
  br i1 %22, label %23, label %29

23:                                               ; preds = %21
  %24 = load i32, i32* %3, align 4
  %25 = add nsw i32 %24, 1
  store i32 %25, i32* %3, align 4
  br label %26

26:                                               ; preds = %23
  %27 = load i32, i32* %2, align 4
  %28 = add nsw i32 %27, 1
  store i32 %28, i32* %2, align 4
  br label %7

29:                                               ; preds = %21
  %30 = load i32, i32* %3, align 4
  %31 = call i32 (i8*, ...) @printf(i8* getelementptr inbounds ([3 x i8], [3 x i8]* @.str, i64 0, i64 0), i32 %30)
  %32 = load i32, i32* %3, align 4
  store i32 %32, i32* %2, align 4
  br label %33

33:                                               ; preds = %63, %29
  %34 = load i32, i32* %2, align 4
  %35 = sext i32 %34 to i64
  %36 = getelementptr inbounds [10000 x i8], [10000 x i8]* %1, i64 0, i64 %35
  %37 = load i8, i8* %36, align 1
  %38 = sext i8 %37 to i32
  %39 = icmp ne i32 %38, 0
  br i1 %39, label %40, label %66

40:                                               ; preds = %33
  %41 = load i32, i32* %2, align 4
  %42 = sext i32 %41 to i64
  %43 = getelementptr inbounds [10000 x i8], [10000 x i8]* %1, i64 0, i64 %42
  %44 = load i8, i8* %43, align 1
  %45 = sext i8 %44 to i32
  %46 = icmp eq i32 %45, 32
  br i1 %46, label %47, label %62

47:                                               ; preds = %40
  %48 = load i32, i32* %2, align 4
  %49 = add nsw i32 %48, 1
  %50 = sext i32 %49 to i64
  %51 = getelementptr inbounds [10000 x i8], [10000 x i8]* %1, i64 0, i64 %50
  %52 = load i8, i8* %51, align 1
  %53 = sext i8 %52 to i32
  %54 = icmp ne i32 %53, 32
  br i1 %54, label %55, label %62

55:                                               ; preds = %47
  %56 = getelementptr inbounds [10000 x i8], [10000 x i8]* %1, i64 0, i64 0
  %57 = load i32, i32* %2, align 4
  %58 = add nsw i32 %57, 1
  %59 = call i32 @f(i8* %56, i32 %58)
  store i32 %59, i32* %4, align 4
  %60 = load i32, i32* %4, align 4
  %61 = call i32 (i8*, ...) @printf(i8* getelementptr inbounds ([4 x i8], [4 x i8]* @.str.1, i64 0, i64 0), i32 %60)
  br label %62

62:                                               ; preds = %55, %47, %40
  br label %63

63:                                               ; preds = %62
  %64 = load i32, i32* %2, align 4
  %65 = add nsw i32 %64, 1
  store i32 %65, i32* %2, align 4
  br label %33

66:                                               ; preds = %33
  ret void
}

declare dso_local i32 @gets(...) #1

declare dso_local i32 @printf(i8*, ...) #1

; Function Attrs: noinline nounwind uwtable
define dso_local i32 @f(i8* %0, i32 %1) #0 {
  %3 = alloca i8*, align 8
  %4 = alloca i32, align 4
  %5 = alloca i32, align 4
  store i8* %0, i8** %3, align 8
  store i32 %1, i32* %4, align 4
  store i32 0, i32* %5, align 4
  %6 = load i8*, i8** %3, align 8
  %7 = load i32, i32* %4, align 4
  %8 = sext i32 %7 to i64
  %9 = getelementptr inbounds i8, i8* %6, i64 %8
  store i8* %9, i8** %3, align 8
  br label %10

10:                                               ; preds = %22, %2
  %11 = load i8*, i8** %3, align 8
  %12 = load i8, i8* %11, align 1
  %13 = sext i8 %12 to i32
  %14 = icmp ne i32 %13, 32
  br i1 %14, label %15, label %20

15:                                               ; preds = %10
  %16 = load i8*, i8** %3, align 8
  %17 = load i8, i8* %16, align 1
  %18 = sext i8 %17 to i32
  %19 = icmp ne i32 %18, 0
  br label %20

20:                                               ; preds = %15, %10
  %21 = phi i1 [ false, %10 ], [ %19, %15 ]
  br i1 %21, label %22, label %27

22:                                               ; preds = %20
  %23 = load i32, i32* %5, align 4
  %24 = add nsw i32 %23, 1
  store i32 %24, i32* %5, align 4
  %25 = load i8*, i8** %3, align 8
  %26 = getelementptr inbounds i8, i8* %25, i32 1
  store i8* %26, i8** %3, align 8
  br label %10

27:                                               ; preds = %20
  %28 = load i32, i32* %5, align 4
  ret i32 %28
}


!llvm.module.flags = !{!0}
!llvm.ident = !{!1}

!0 = !{i32 1, !"wchar_size", i32 4}
!1 = !{!"clang version 10.0.0-4ubuntu1 "}
